target datalayout = "e-m:e-p270:32:32-p271:32:32-p272:64:64-i64:64-i128:128-f80:128-n8:16:32:64-S128"
target triple = "x86_64-pc-linux-gnu"

%struct.AVFilterContext = type { ptr, ptr, ptr, ptr, ptr, i32, ptr, ptr, i32, ptr, ptr, i32, i32, ptr, ptr, ptr, ptr, i32, ptr, i32, i32 }
%struct.XBRContext = type { ptr, i32, ptr, [16777216 x i32] }
%struct.ThreadData = type { ptr, ptr, ptr }
%struct.AVFilterLink = type { ptr, ptr, ptr, ptr, i32, i32, i32, i32, %struct.AVRational, i32, i32, i32, %struct.AVChannelLayout, %struct.AVRational, ptr, i32, %struct.AVFilterFormatsConfig, %struct.AVFilterFormatsConfig }
%struct.AVChannelLayout = type { i32, i32, %union.anon.1, ptr }
%union.anon.1 = type { i64 }
%struct.AVRational = type { i32, i32 }
%struct.AVFilterFormatsConfig = type { ptr, ptr, ptr, ptr, ptr }
%struct.AVFrame = type { [8 x ptr], [8 x i32], ptr, i32, i32, i32, i32, i32, %struct.AVRational, i64, i64, %struct.AVRational, i32, ptr, i32, i32, [8 x ptr], ptr, i32, ptr, i32, i32, i32, i32, i32, i32, i32, i64, ptr, i32, ptr, ptr, i64, i64, i64, i64, ptr, %struct.AVChannelLayout, i64 }

; Function Attrs: nounwind uwtable
define internal i32 @filter_frame(ptr noundef %0, ptr noundef %1) #1 {
  %3 = alloca i32, align 4
  %4 = alloca ptr, align 8
  %5 = alloca ptr, align 8
  %6 = alloca ptr, align 8
  %7 = alloca ptr, align 8
  %8 = alloca ptr, align 8
  %9 = alloca %struct.ThreadData, align 8
  %10 = alloca ptr, align 8
  %11 = alloca i32, align 4
  store ptr %0, ptr %4, align 8, !tbaa !33
  store ptr %1, ptr %5, align 8, !tbaa !35
  call void @llvm.lifetime.start.p0(i64 8, ptr %6) #7
  %12 = load ptr, ptr %4, align 8, !tbaa !33
  %13 = getelementptr inbounds nuw %struct.AVFilterLink, ptr %12, i32 0, i32 2
  %14 = load ptr, ptr %13, align 8, !tbaa !37
  store ptr %14, ptr %6, align 8, !tbaa !4
  call void @llvm.lifetime.start.p0(i64 8, ptr %7) #7
  %15 = load ptr, ptr %6, align 8, !tbaa !4
  %16 = getelementptr inbounds nuw %struct.AVFilterContext, ptr %15, i32 0, i32 7
  %17 = load ptr, ptr %16, align 8, !tbaa !45
  %18 = getelementptr inbounds ptr, ptr %17, i64 0
  %19 = load ptr, ptr %18, align 8, !tbaa !33
  store ptr %19, ptr %7, align 8, !tbaa !33
  call void @llvm.lifetime.start.p0(i64 8, ptr %8) #7
  %20 = load ptr, ptr %6, align 8, !tbaa !4
  %21 = getelementptr inbounds nuw %struct.AVFilterContext, ptr %20, i32 0, i32 9
  %22 = load ptr, ptr %21, align 8, !tbaa !9
  store ptr %22, ptr %8, align 8, !tbaa !22
  call void @llvm.lifetime.start.p0(i64 24, ptr %9) #7
  call void @llvm.lifetime.start.p0(i64 8, ptr %10) #7
  %23 = load ptr, ptr %7, align 8, !tbaa !33
  %24 = load ptr, ptr %7, align 8, !tbaa !33
  %25 = getelementptr inbounds nuw %struct.AVFilterLink, ptr %24, i32 0, i32 6
  %26 = load i32, ptr %25, align 8, !tbaa !46
  %27 = load ptr, ptr %7, align 8, !tbaa !33
  %28 = getelementptr inbounds nuw %struct.AVFilterLink, ptr %27, i32 0, i32 7
  %29 = load i32, ptr %28, align 4, !tbaa !47
  %30 = call ptr @ff_get_video_buffer(ptr noundef %23, i32 noundef %26, i32 noundef %29)
  store ptr %30, ptr %10, align 8, !tbaa !35
  %31 = load ptr, ptr %10, align 8, !tbaa !35
  %32 = icmp ne ptr %31, null
  br i1 %32, label %34, label %33

33:                                               ; preds = %2
  call void @av_frame_free(ptr noundef %5)
  store i32 -12, ptr %3, align 4
  store i32 1, ptr %11, align 4
  br label %79

34:                                               ; preds = %2
  %35 = load ptr, ptr %10, align 8, !tbaa !35
  %36 = load ptr, ptr %5, align 8, !tbaa !35
  %37 = call i32 @av_frame_copy_props(ptr noundef %35, ptr noundef %36)
  %38 = load ptr, ptr %5, align 8, !tbaa !35
  %39 = getelementptr inbounds nuw %struct.ThreadData, ptr %9, i32 0, i32 0
  store ptr %38, ptr %39, align 8, !tbaa !48
  %40 = load ptr, ptr %10, align 8, !tbaa !35
  %41 = getelementptr inbounds nuw %struct.ThreadData, ptr %9, i32 0, i32 1
  store ptr %40, ptr %41, align 8, !tbaa !51
  %42 = load ptr, ptr %8, align 8, !tbaa !22
  %43 = getelementptr inbounds nuw %struct.XBRContext, ptr %42, i32 0, i32 3
  %44 = getelementptr inbounds [16777216 x i32], ptr %43, i64 0, i64 0
  %45 = getelementptr inbounds nuw %struct.ThreadData, ptr %9, i32 0, i32 2
  store ptr %44, ptr %45, align 8, !tbaa !52
  %46 = load ptr, ptr %6, align 8, !tbaa !4
  %47 = load ptr, ptr %8, align 8, !tbaa !22
  %48 = getelementptr inbounds nuw %struct.XBRContext, ptr %47, i32 0, i32 2
  %49 = load ptr, ptr %48, align 8, !tbaa !32
  %50 = load ptr, ptr %4, align 8, !tbaa !33
  %51 = getelementptr inbounds nuw %struct.AVFilterLink, ptr %50, i32 0, i32 7
  %52 = load i32, ptr %51, align 4, !tbaa !47
  %53 = load ptr, ptr %6, align 8, !tbaa !4
  %54 = call i32 @ff_filter_get_nb_threads(ptr noundef %53) #8
  %55 = icmp sgt i32 %52, %54
  br i1 %55, label %56, label %59

56:                                               ; preds = %34
  %57 = load ptr, ptr %6, align 8, !tbaa !4
  %58 = call i32 @ff_filter_get_nb_threads(ptr noundef %57) #8
  br label %63

59:                                               ; preds = %34
  %60 = load ptr, ptr %4, align 8, !tbaa !33
  %61 = getelementptr inbounds nuw %struct.AVFilterLink, ptr %60, i32 0, i32 7
  %62 = load i32, ptr %61, align 4, !tbaa !47
  br label %63

63:                                               ; preds = %59, %56
  %64 = phi i32 [ %58, %56 ], [ %62, %59 ]
  %65 = call i32 @ff_filter_execute(ptr noundef %46, ptr noundef %49, ptr noundef %9, ptr noundef null, i32 noundef %64)
  %66 = load ptr, ptr %7, align 8, !tbaa !33
  %67 = getelementptr inbounds nuw %struct.AVFilterLink, ptr %66, i32 0, i32 6
  %68 = load i32, ptr %67, align 8, !tbaa !46
  %69 = load ptr, ptr %10, align 8, !tbaa !35
  %70 = getelementptr inbounds nuw %struct.AVFrame, ptr %69, i32 0, i32 3
  store i32 %68, ptr %70, align 8, !tbaa !53
  %71 = load ptr, ptr %7, align 8, !tbaa !33
  %72 = getelementptr inbounds nuw %struct.AVFilterLink, ptr %71, i32 0, i32 7
  %73 = load i32, ptr %72, align 4, !tbaa !47
  %74 = load ptr, ptr %10, align 8, !tbaa !35
  %75 = getelementptr inbounds nuw %struct.AVFrame, ptr %74, i32 0, i32 4
  store i32 %73, ptr %75, align 4, !tbaa !59
  call void @av_frame_free(ptr noundef %5)
  %76 = load ptr, ptr %7, align 8, !tbaa !33
  %77 = load ptr, ptr %10, align 8, !tbaa !35
  %78 = call i32 @ff_filter_frame(ptr noundef %76, ptr noundef %77)
  store i32 %78, ptr %3, align 4
  store i32 1, ptr %11, align 4
  br label %79

79:                                               ; preds = %63, %33
  call void @llvm.lifetime.end.p0(i64 8, ptr %10) #7
  call void @llvm.lifetime.end.p0(i64 24, ptr %9) #7
  call void @llvm.lifetime.end.p0(i64 8, ptr %8) #7
  call void @llvm.lifetime.end.p0(i64 8, ptr %7) #7
  call void @llvm.lifetime.end.p0(i64 8, ptr %6) #7
  %80 = load i32, ptr %3, align 4
  ret i32 %80
}