; Function Attrs: nounwind uwtable
define internal i32 @filter_frame(ptr noundef readonly captures(none) %0, ptr noundef %1) #1 {
  %3 = alloca ptr, align 8
  %4 = alloca %struct.ThreadData, align 8
  store ptr %1, ptr %3, align 8, !tbaa !29
  %5 = getelementptr inbounds nuw i8, ptr %0, i64 16
  %6 = load ptr, ptr %5, align 8, !tbaa !31
  %7 = getelementptr inbounds nuw i8, ptr %6, i64 56
  %8 = load ptr, ptr %7, align 8, !tbaa !40
  %9 = load ptr, ptr %8, align 8, !tbaa !41
  %10 = getelementptr inbounds nuw i8, ptr %6, i64 72
  %11 = load ptr, ptr %10, align 8, !tbaa !4
  call void @llvm.lifetime.start.p0(i64 24, ptr nonnull %4) #9
  %12 = getelementptr inbounds nuw i8, ptr %9, i64 40
  %13 = load i32, ptr %12, align 8, !tbaa !43
  %14 = getelementptr inbounds nuw i8, ptr %9, i64 44
  %15 = load i32, ptr %14, align 4, !tbaa !44
  %16 = tail call ptr @ff_get_video_buffer(ptr noundef %9, i32 noundef %13, i32 noundef %15) #9
  %.not = icmp eq ptr %16, null
  br i1 %.not, label %17, label %18

17:                                               ; preds = %2
  call void @av_frame_free(ptr noundef nonnull %3) #9
  br label %34

18:                                               ; preds = %2
  %19 = tail call i32 @av_frame_copy_props(ptr noundef nonnull %16, ptr noundef %1) #9
  store ptr %1, ptr %4, align 8, !tbaa !45
  %20 = getelementptr inbounds nuw i8, ptr %4, i64 8
  store ptr %16, ptr %20, align 8, !tbaa !48
  %21 = getelementptr inbounds nuw i8, ptr %11, i64 24
  %22 = getelementptr inbounds nuw i8, ptr %4, i64 16
  store ptr %21, ptr %22, align 8, !tbaa !49
  %23 = getelementptr inbounds nuw i8, ptr %11, i64 16
  %24 = load ptr, ptr %23, align 8, !tbaa !28
  %25 = getelementptr inbounds nuw i8, ptr %0, i64 44
  %26 = load i32, ptr %25, align 4, !tbaa !44
  %27 = tail call i32 @ff_filter_get_nb_threads(ptr noundef nonnull %6) #10
  %. = tail call i32 @llvm.smin.i32(i32 %26, i32 %27)
  %28 = call i32 @ff_filter_execute(ptr noundef nonnull %6, ptr noundef %24, ptr noundef nonnull %4, ptr noundef null, i32 noundef %.) #9
  %29 = load i32, ptr %12, align 8, !tbaa !43
  %30 = getelementptr inbounds nuw i8, ptr %16, i64 104
  store i32 %29, ptr %30, align 8, !tbaa !50
  %31 = load i32, ptr %14, align 4, !tbaa !44
  %32 = getelementptr inbounds nuw i8, ptr %16, i64 108
  store i32 %31, ptr %32, align 4, !tbaa !56
  call void @av_frame_free(ptr noundef nonnull %3) #9
  %33 = call i32 @ff_filter_frame(ptr noundef nonnull %9, ptr noundef nonnull %16) #9
  br label %34

34:                                               ; preds = %18, %17
  %.0 = phi i32 [ %33, %18 ], [ -12, %17 ]
  call void @llvm.lifetime.end.p0(i64 24, ptr nonnull %4) #9
  ret i32 %.0
}